target datalayout = "e-m:e-p270:32:32-p271:32:32-p272:64:64-i64:64-i128:128-f80:128-n8:16:32:64-S128"
target triple = "x86_64-pc-linux-gnu"

%union.anon = type { [2 x i64] }

; Function Attrs: nounwind uwtable
define void @CRYPTO_cbc128_decrypt(ptr noundef %0, ptr noundef %1, i64 noundef %2, ptr noundef %3, ptr noundef %4, ptr noundef %5) #0 {
  %7 = alloca ptr, align 8
  %8 = alloca ptr, align 8
  %9 = alloca i64, align 8
  %10 = alloca ptr, align 8
  %11 = alloca ptr, align 8
  %12 = alloca ptr, align 8
  %13 = alloca i64, align 8
  %14 = alloca %union.anon, align 8
  %15 = alloca i32, align 4
  %16 = alloca ptr, align 8
  %17 = alloca ptr, align 8
  %18 = alloca ptr, align 8
  %19 = alloca i64, align 8
  %20 = alloca ptr, align 8
  %21 = alloca ptr, align 8
  %22 = alloca ptr, align 8
  %23 = alloca i8, align 1
  store ptr %0, ptr %7, align 8, !tbaa !3
  store ptr %1, ptr %8, align 8, !tbaa !3
  store i64 %2, ptr %9, align 8, !tbaa !8
  store ptr %3, ptr %10, align 8, !tbaa !10
  store ptr %4, ptr %11, align 8, !tbaa !3
  store ptr %5, ptr %12, align 8, !tbaa !10
  call void @llvm.lifetime.start.p0(i64 8, ptr %13) #3
  call void @llvm.lifetime.start.p0(i64 16, ptr %14) #3
  %24 = load i64, ptr %9, align 8, !tbaa !8
  %25 = icmp eq i64 %24, 0
  br i1 %25, label %26, label %27

26:                                               ; preds = %6
  store i32 1, ptr %15, align 4
  br label %195

27:                                               ; preds = %6
  %28 = load ptr, ptr %7, align 8, !tbaa !3
  %29 = load ptr, ptr %8, align 8, !tbaa !3
  %30 = icmp ne ptr %28, %29
  br i1 %30, label %31, label %75

31:                                               ; preds = %27
  call void @llvm.lifetime.start.p0(i64 8, ptr %16) #3
  %32 = load ptr, ptr %11, align 8, !tbaa !3
  store ptr %32, ptr %16, align 8, !tbaa !3
  br label %33

33:                                               ; preds = %59, %31
  %34 = load i64, ptr %9, align 8, !tbaa !8
  %35 = icmp uge i64 %34, 16
  br i1 %35, label %36, label %67

36:                                               ; preds = %33
  call void @llvm.lifetime.start.p0(i64 8, ptr %17) #3
  %37 = load ptr, ptr %8, align 8, !tbaa !3
  store ptr %37, ptr %17, align 8, !tbaa !18
  call void @llvm.lifetime.start.p0(i64 8, ptr %18) #3
  %38 = load ptr, ptr %16, align 8, !tbaa !3
  store ptr %38, ptr %18, align 8, !tbaa !18
  %39 = load ptr, ptr %12, align 8, !tbaa !10
  %40 = load ptr, ptr %7, align 8, !tbaa !3
  %41 = load ptr, ptr %8, align 8, !tbaa !3
  %42 = load ptr, ptr %10, align 8, !tbaa !10
  call void %39(ptr noundef %40, ptr noundef %41, ptr noundef %42)
  store i64 0, ptr %13, align 8, !tbaa !8
  br label %43

43:                                               ; preds = %56, %36
  %44 = load i64, ptr %13, align 8, !tbaa !8
  %45 = icmp ult i64 %44, 2
  br i1 %45, label %46, label %59

46:                                               ; preds = %43
  %47 = load ptr, ptr %18, align 8, !tbaa !18
  %48 = load i64, ptr %13, align 8, !tbaa !8
  %49 = getelementptr inbounds nuw i64, ptr %47, i64 %48
  %50 = load i64, ptr %49, align 1, !tbaa !8
  %51 = load ptr, ptr %17, align 8, !tbaa !18
  %52 = load i64, ptr %13, align 8, !tbaa !8
  %53 = getelementptr inbounds nuw i64, ptr %51, i64 %52
  %54 = load i64, ptr %53, align 1, !tbaa !8
  %55 = xor i64 %54, %50
  store i64 %55, ptr %53, align 1, !tbaa !8
  br label %56

56:                                               ; preds = %46
  %57 = load i64, ptr %13, align 8, !tbaa !8
  %58 = add i64 %57, 1
  store i64 %58, ptr %13, align 8, !tbaa !8
  br label %43, !llvm.loop !20

59:                                               ; preds = %43
  %60 = load ptr, ptr %7, align 8, !tbaa !3
  store ptr %60, ptr %16, align 8, !tbaa !3
  %61 = load i64, ptr %9, align 8, !tbaa !8
  %62 = sub i64 %61, 16
  store i64 %62, ptr %9, align 8, !tbaa !8
  %63 = load ptr, ptr %7, align 8, !tbaa !3
  %64 = getelementptr inbounds i8, ptr %63, i64 16
  store ptr %64, ptr %7, align 8, !tbaa !3
  %65 = load ptr, ptr %8, align 8, !tbaa !3
  %66 = getelementptr inbounds i8, ptr %65, i64 16
  store ptr %66, ptr %8, align 8, !tbaa !3
  call void @llvm.lifetime.end.p0(i64 8, ptr %18) #3
  call void @llvm.lifetime.end.p0(i64 8, ptr %17) #3
  br label %33, !llvm.loop !21

67:                                               ; preds = %33
  %68 = load ptr, ptr %11, align 8, !tbaa !3
  %69 = load ptr, ptr %16, align 8, !tbaa !3
  %70 = icmp ne ptr %68, %69
  br i1 %70, label %71, label %74

71:                                               ; preds = %67
  %72 = load ptr, ptr %11, align 8, !tbaa !3
  %73 = load ptr, ptr %16, align 8, !tbaa !3
  call void @llvm.memcpy.p0.p0.i64(ptr align 1 %72, ptr align 1 %73, i64 16, i1 false)
  br label %74

74:                                               ; preds = %71, %67
  call void @llvm.lifetime.end.p0(i64 8, ptr %16) #3
  br label %121

75:                                               ; preds = %27
  br label %76

76:                                               ; preds = %113, %75
  %77 = load i64, ptr %9, align 8, !tbaa !8
  %78 = icmp uge i64 %77, 16
  br i1 %78, label %79, label %120

79:                                               ; preds = %76
  call void @llvm.lifetime.start.p0(i64 8, ptr %19) #3
  call void @llvm.lifetime.start.p0(i64 8, ptr %20) #3
  %80 = load ptr, ptr %8, align 8, !tbaa !3
  store ptr %80, ptr %20, align 8, !tbaa !18
  call void @llvm.lifetime.start.p0(i64 8, ptr %21) #3
  %81 = load ptr, ptr %11, align 8, !tbaa !3
  store ptr %81, ptr %21, align 8, !tbaa !18
  call void @llvm.lifetime.start.p0(i64 8, ptr %22) #3
  %82 = load ptr, ptr %7, align 8, !tbaa !3
  store ptr %82, ptr %22, align 8, !tbaa !18
  %83 = load ptr, ptr %12, align 8, !tbaa !10
  %84 = load ptr, ptr %7, align 8, !tbaa !3
  %85 = getelementptr inbounds [16 x i8], ptr %14, i64 0, i64 0
  %86 = load ptr, ptr %10, align 8, !tbaa !10
  call void %83(ptr noundef %84, ptr noundef %85, ptr noundef %86)
  store i64 0, ptr %13, align 8, !tbaa !8
  br label %87

87:                                               ; preds = %110, %79
  %88 = load i64, ptr %13, align 8, !tbaa !8
  %89 = icmp ult i64 %88, 2
  br i1 %89, label %90, label %113

90:                                               ; preds = %87
  %91 = load ptr, ptr %22, align 8, !tbaa !18
  %92 = load i64, ptr %13, align 8, !tbaa !8
  %93 = getelementptr inbounds nuw i64, ptr %91, i64 %92
  %94 = load i64, ptr %93, align 1, !tbaa !8
  store i64 %94, ptr %19, align 8, !tbaa !8
  %95 = load i64, ptr %13, align 8, !tbaa !8
  %96 = getelementptr inbounds nuw [2 x i64], ptr %14, i64 0, i64 %95
  %97 = load i64, ptr %96, align 8, !tbaa !14
  %98 = load ptr, ptr %21, align 8, !tbaa !18
  %99 = load i64, ptr %13, align 8, !tbaa !8
  %100 = getelementptr inbounds nuw i64, ptr %98, i64 %99
  %101 = load i64, ptr %100, align 1, !tbaa !8
  %102 = xor i64 %97, %101
  %103 = load ptr, ptr %20, align 8, !tbaa !18
  %104 = load i64, ptr %13, align 8, !tbaa !8
  %105 = getelementptr inbounds nuw i64, ptr %103, i64 %104
  store i64 %102, ptr %105, align 1, !tbaa !8
  %106 = load i64, ptr %19, align 8, !tbaa !8
  %107 = load ptr, ptr %21, align 8, !tbaa !18
  %108 = load i64, ptr %13, align 8, !tbaa !8
  %109 = getelementptr inbounds nuw i64, ptr %107, i64 %108
  store i64 %106, ptr %109, align 1, !tbaa !8
  br label %110

110:                                              ; preds = %90
  %111 = load i64, ptr %13, align 8, !tbaa !8
  %112 = add i64 %111, 1
  store i64 %112, ptr %13, align 8, !tbaa !8
  br label %87, !llvm.loop !22

113:                                              ; preds = %87
  %114 = load i64, ptr %9, align 8, !tbaa !8
  %115 = sub i64 %114, 16
  store i64 %115, ptr %9, align 8, !tbaa !8
  %116 = load ptr, ptr %7, align 8, !tbaa !3
  %117 = getelementptr inbounds i8, ptr %116, i64 16
  store ptr %117, ptr %7, align 8, !tbaa !3
  %118 = load ptr, ptr %8, align 8, !tbaa !3
  %119 = getelementptr inbounds i8, ptr %118, i64 16
  store ptr %119, ptr %8, align 8, !tbaa !3
  call void @llvm.lifetime.end.p0(i64 8, ptr %22) #3
  call void @llvm.lifetime.end.p0(i64 8, ptr %21) #3
  call void @llvm.lifetime.end.p0(i64 8, ptr %20) #3
  call void @llvm.lifetime.end.p0(i64 8, ptr %19) #3
  br label %76, !llvm.loop !23

120:                                              ; preds = %76
  br label %121

121:                                              ; preds = %120, %74
  br label %122

122:                                              ; preds = %193, %121
  %123 = load i64, ptr %9, align 8, !tbaa !8
  %124 = icmp ne i64 %123, 0
  br i1 %124, label %125, label %194

125:                                              ; preds = %122
  call void @llvm.lifetime.start.p0(i64 1, ptr %23) #3
  %126 = load ptr, ptr %12, align 8, !tbaa !10
  %127 = load ptr, ptr %7, align 8, !tbaa !3
  %128 = getelementptr inbounds [16 x i8], ptr %14, i64 0, i64 0
  %129 = load ptr, ptr %10, align 8, !tbaa !10
  call void %126(ptr noundef %127, ptr noundef %128, ptr noundef %129)
  store i64 0, ptr %13, align 8, !tbaa !8
  br label %130

130:                                              ; preds = %162, %125
  %131 = load i64, ptr %13, align 8, !tbaa !8
  %132 = icmp ult i64 %131, 16
  br i1 %132, label %133, label %137

133:                                              ; preds = %130
  %134 = load i64, ptr %13, align 8, !tbaa !8
  %135 = load i64, ptr %9, align 8, !tbaa !8
  %136 = icmp ult i64 %134, %135
  br label %137

137:                                              ; preds = %133, %130
  %138 = phi i1 [ false, %130 ], [ %136, %133 ]
  br i1 %138, label %139, label %165

139:                                              ; preds = %137
  %140 = load ptr, ptr %7, align 8, !tbaa !3
  %141 = load i64, ptr %13, align 8, !tbaa !8
  %142 = getelementptr inbounds nuw i8, ptr %140, i64 %141
  %143 = load i8, ptr %142, align 1, !tbaa !14
  store i8 %143, ptr %23, align 1, !tbaa !14
  %144 = load i64, ptr %13, align 8, !tbaa !8
  %145 = getelementptr inbounds nuw [16 x i8], ptr %14, i64 0, i64 %144
  %146 = load i8, ptr %145, align 1, !tbaa !14
  %147 = zext i8 %146 to i32
  %148 = load ptr, ptr %11, align 8, !tbaa !3
  %149 = load i64, ptr %13, align 8, !tbaa !8
  %150 = getelementptr inbounds nuw i8, ptr %148, i64 %149
  %151 = load i8, ptr %150, align 1, !tbaa !14
  %152 = zext i8 %151 to i32
  %153 = xor i32 %147, %152
  %154 = trunc i32 %153 to i8
  %155 = load ptr, ptr %8, align 8, !tbaa !3
  %156 = load i64, ptr %13, align 8, !tbaa !8
  %157 = getelementptr inbounds nuw i8, ptr %155, i64 %156
  store i8 %154, ptr %157, align 1, !tbaa !14
  %158 = load i8, ptr %23, align 1, !tbaa !14
  %159 = load ptr, ptr %11, align 8, !tbaa !3
  %160 = load i64, ptr %13, align 8, !tbaa !8
  %161 = getelementptr inbounds nuw i8, ptr %159, i64 %160
  store i8 %158, ptr %161, align 1, !tbaa !14
  br label %162

162:                                              ; preds = %139
  %163 = load i64, ptr %13, align 8, !tbaa !8
  %164 = add i64 %163, 1
  store i64 %164, ptr %13, align 8, !tbaa !8
  br label %130, !llvm.loop !24

165:                                              ; preds = %137
  %166 = load i64, ptr %9, align 8, !tbaa !8
  %167 = icmp ule i64 %166, 16
  br i1 %167, label %168, label %184

168:                                              ; preds = %165
  br label %169

169:                                              ; preds = %180, %168
  %170 = load i64, ptr %13, align 8, !tbaa !8
  %171 = icmp ult i64 %170, 16
  br i1 %171, label %172, label %183

172:                                              ; preds = %169
  %173 = load ptr, ptr %7, align 8, !tbaa !3
  %174 = load i64, ptr %13, align 8, !tbaa !8
  %175 = getelementptr inbounds nuw i8, ptr %173, i64 %174
  %176 = load i8, ptr %175, align 1, !tbaa !14
  %177 = load ptr, ptr %11, align 8, !tbaa !3
  %178 = load i64, ptr %13, align 8, !tbaa !8
  %179 = getelementptr inbounds nuw i8, ptr %177, i64 %178
  store i8 %176, ptr %179, align 1, !tbaa !14
  br label %180

180:                                              ; preds = %172
  %181 = load i64, ptr %13, align 8, !tbaa !8
  %182 = add i64 %181, 1
  store i64 %182, ptr %13, align 8, !tbaa !8
  br label %169, !llvm.loop !25

183:                                              ; preds = %169
  store i32 13, ptr %15, align 4
  br label %191

184:                                              ; preds = %165
  %185 = load i64, ptr %9, align 8, !tbaa !8
  %186 = sub i64 %185, 16
  store i64 %186, ptr %9, align 8, !tbaa !8
  %187 = load ptr, ptr %7, align 8, !tbaa !3
  %188 = getelementptr inbounds i8, ptr %187, i64 16
  store ptr %188, ptr %7, align 8, !tbaa !3
  %189 = load ptr, ptr %8, align 8, !tbaa !3
  %190 = getelementptr inbounds i8, ptr %189, i64 16
  store ptr %190, ptr %8, align 8, !tbaa !3
  store i32 0, ptr %15, align 4
  br label %191

191:                                              ; preds = %184, %183
  call void @llvm.lifetime.end.p0(i64 1, ptr %23) #3
  %192 = load i32, ptr %15, align 4
  switch i32 %192, label %198 [
    i32 0, label %193
    i32 13, label %194
  ]

193:                                              ; preds = %191
  br label %122, !llvm.loop !26

194:                                              ; preds = %191, %122
  store i32 0, ptr %15, align 4
  br label %195

195:                                              ; preds = %194, %26
  call void @llvm.lifetime.end.p0(i64 16, ptr %14) #3
  call void @llvm.lifetime.end.p0(i64 8, ptr %13) #3
  %196 = load i32, ptr %15, align 4
  switch i32 %196, label %198 [
    i32 0, label %197
    i32 1, label %197
  ]

197:                                              ; preds = %195, %195
  ret void

198:                                              ; preds = %195, %191
  unreachable
}