; Function Attrs: nounwind uwtable
define void @CRYPTO_cbc128_decrypt(ptr noundef %0, ptr noundef %1, i64 noundef %2, ptr noundef %3, ptr noundef captures(address) %4, ptr noundef readonly captures(none) %5) local_unnamed_addr #0 {
  %7 = alloca %union.anon, align 8
  call void @llvm.lifetime.start.p0(i64 16, ptr nonnull %7) #3
  %8 = icmp eq i64 %2, 0
  br i1 %8, label %.loopexit, label %9

9:                                                ; preds = %6
  %.not = icmp eq ptr %0, %1
  %10 = icmp ugt i64 %2, 15
  br i1 %.not, label %.preheader99, label %.preheader101

.preheader101:                                    ; preds = %9
  br i1 %10, label %.lr.ph, label %.loopexit100.thread

.preheader99:                                     ; preds = %9
  br i1 %10, label %.lr.ph114.preheader, label %.loopexit100.thread

.lr.ph114.preheader:                              ; preds = %.preheader99
  %11 = getelementptr inbounds nuw i8, ptr %7, i64 8
  %12 = getelementptr inbounds nuw i8, ptr %4, i64 8
  br label %.lr.ph114

.lr.ph:                                           ; preds = %.preheader101, %.lr.ph
  %.0106 = phi ptr [ %22, %.lr.ph ], [ %0, %.preheader101 ]
  %.075105 = phi ptr [ %23, %.lr.ph ], [ %1, %.preheader101 ]
  %.080104 = phi i64 [ %21, %.lr.ph ], [ %2, %.preheader101 ]
  %.090103 = phi ptr [ %.0106, %.lr.ph ], [ %4, %.preheader101 ]
  tail call void %5(ptr noundef %.0106, ptr noundef %.075105, ptr noundef %3) #3
  %13 = load i64, ptr %.090103, align 1, !tbaa !3
  %14 = load i64, ptr %.075105, align 1, !tbaa !3
  %15 = xor i64 %14, %13
  store i64 %15, ptr %.075105, align 1, !tbaa !3
  %16 = getelementptr inbounds nuw i8, ptr %.090103, i64 8
  %17 = load i64, ptr %16, align 1, !tbaa !3
  %18 = getelementptr inbounds nuw i8, ptr %.075105, i64 8
  %19 = load i64, ptr %18, align 1, !tbaa !3
  %20 = xor i64 %19, %17
  store i64 %20, ptr %18, align 1, !tbaa !3
  %21 = add i64 %.080104, -16
  %22 = getelementptr inbounds nuw i8, ptr %.0106, i64 16
  %23 = getelementptr inbounds nuw i8, ptr %.075105, i64 16
  %24 = icmp ugt i64 %21, 15
  br i1 %24, label %.lr.ph, label %._crit_edge, !llvm.loop !12

._crit_edge:                                      ; preds = %.lr.ph
  %.not97 = icmp eq ptr %4, %.0106
  br i1 %.not97, label %.loopexit100, label %25

25:                                               ; preds = %._crit_edge
  tail call void @llvm.memcpy.p0.p0.i64(ptr noundef nonnull align 1 dereferenceable(16) %4, ptr noundef nonnull align 1 dereferenceable(16) %.0106, i64 16, i1 false)
  br label %.loopexit100

.lr.ph114:                                        ; preds = %.lr.ph114.preheader, %.lr.ph114
  %.2113 = phi ptr [ %37, %.lr.ph114 ], [ %0, %.lr.ph114.preheader ]
  %.277112 = phi ptr [ %38, %.lr.ph114 ], [ %1, %.lr.ph114.preheader ]
  %.282111 = phi i64 [ %36, %.lr.ph114 ], [ %2, %.lr.ph114.preheader ]
  call void %5(ptr noundef %.2113, ptr noundef nonnull %7, ptr noundef %3) #3
  %26 = load i64, ptr %.2113, align 1, !tbaa !3
  %27 = load i64, ptr %7, align 8, !tbaa !9
  %28 = load i64, ptr %4, align 1, !tbaa !3
  %29 = xor i64 %28, %27
  store i64 %29, ptr %.277112, align 1, !tbaa !3
  store i64 %26, ptr %4, align 1, !tbaa !3
  %30 = getelementptr inbounds nuw i8, ptr %.2113, i64 8
  %31 = load i64, ptr %30, align 1, !tbaa !3
  %32 = load i64, ptr %11, align 8, !tbaa !9
  %33 = load i64, ptr %12, align 1, !tbaa !3
  %34 = xor i64 %33, %32
  %35 = getelementptr inbounds nuw i8, ptr %.277112, i64 8
  store i64 %34, ptr %35, align 1, !tbaa !3
  store i64 %31, ptr %12, align 1, !tbaa !3
  %36 = add i64 %.282111, -16
  %37 = getelementptr inbounds nuw i8, ptr %.2113, i64 16
  %38 = getelementptr inbounds nuw i8, ptr %.277112, i64 16
  %39 = icmp ugt i64 %36, 15
  br i1 %39, label %.lr.ph114, label %.loopexit100, !llvm.loop !13

.loopexit100:                                     ; preds = %.lr.ph114, %25, %._crit_edge
  %.181 = phi i64 [ %21, %25 ], [ %21, %._crit_edge ], [ %36, %.lr.ph114 ]
  %.176 = phi ptr [ %23, %25 ], [ %23, %._crit_edge ], [ %38, %.lr.ph114 ]
  %.1 = phi ptr [ %22, %25 ], [ %22, %._crit_edge ], [ %37, %.lr.ph114 ]
  %.not98 = icmp eq i64 %.181, 0
  br i1 %.not98, label %.loopexit, label %.loopexit100.thread

.loopexit100.thread:                              ; preds = %.preheader101, %.preheader99, %.loopexit100
  %.1139 = phi ptr [ %.1, %.loopexit100 ], [ %0, %.preheader99 ], [ %0, %.preheader101 ]
  %.176138 = phi ptr [ %.176, %.loopexit100 ], [ %1, %.preheader99 ], [ %1, %.preheader101 ]
  %.181137 = phi i64 [ %.181, %.loopexit100 ], [ %2, %.preheader99 ], [ %2, %.preheader101 ]
  call void %5(ptr noundef %.1139, ptr noundef nonnull %7, ptr noundef %3) #3
  br label %41

.preheader:                                       ; preds = %41
  %40 = icmp samesign ult i64 %.287118, 15
  br i1 %40, label %.lr.ph120, label %.loopexit

41:                                               ; preds = %.loopexit100.thread, %41
  %.287118 = phi i64 [ 0, %.loopexit100.thread ], [ %50, %41 ]
  %42 = getelementptr inbounds nuw i8, ptr %.1139, i64 %.287118
  %43 = load i8, ptr %42, align 1, !tbaa !9
  %44 = getelementptr inbounds nuw [16 x i8], ptr %7, i64 0, i64 %.287118
  %45 = load i8, ptr %44, align 1, !tbaa !9
  %46 = getelementptr inbounds nuw i8, ptr %4, i64 %.287118
  %47 = load i8, ptr %46, align 1, !tbaa !9
  %48 = xor i8 %47, %45
  %49 = getelementptr inbounds nuw i8, ptr %.176138, i64 %.287118
  store i8 %48, ptr %49, align 1, !tbaa !9
  store i8 %43, ptr %46, align 1, !tbaa !9
  %50 = add nuw nsw i64 %.287118, 1
  %exitcond.not = icmp eq i64 %50, %.181137
  br i1 %exitcond.not, label %.preheader, label %41, !llvm.loop !14

.lr.ph120:                                        ; preds = %.preheader, %.lr.ph120
  %.388119 = phi i64 [ %54, %.lr.ph120 ], [ %.181137, %.preheader ]
  %51 = getelementptr inbounds nuw i8, ptr %.1139, i64 %.388119
  %52 = load i8, ptr %51, align 1, !tbaa !9
  %53 = getelementptr inbounds nuw i8, ptr %4, i64 %.388119
  store i8 %52, ptr %53, align 1, !tbaa !9
  %54 = add nuw nsw i64 %.388119, 1
  %55 = icmp samesign ult i64 %.388119, 15
  br i1 %55, label %.lr.ph120, label %.loopexit, !llvm.loop !15

.loopexit:                                        ; preds = %.lr.ph120, %.preheader, %.loopexit100, %6
  call void @llvm.lifetime.end.p0(i64 16, ptr nonnull %7) #3
  ret void
}